Certificate:
    Data:
        Version: 3 (0x2)
        Serial Number: 2 (0x2)
        Signature Algorithm: sha256WithRSAEncryption
        Issuer: C=FR, ST=idf, L=idf, O=devsecops-dojo, OU=devsecops-dojo, CN=devsecopsdojo/emailAddress=ngaswilly77@gmail.com
        Validity
            Not Before: Nov 16 13:54:56 2025 GMT
            Not After : Aug 12 13:54:56 2028 GMT
        Subject: C=FR, ST=idf, L=idf, O=devsecops-dojo, OU=devsecops-dojo, CN=kafka-2
        Subject Public Key Info:
            Public Key Algorithm: rsaEncryption
                Public-Key: (3072 bit)
                Modulus:
                    00:c2:11:16:0a:8a:eb:dd:e4:e9:4f:b0:67:34:84:
                    d8:8e:00:d5:21:53:95:38:ad:57:c6:8d:95:5d:b7:
                    4b:7d:50:6c:a7:51:5a:0b:64:4a:af:9f:9e:d4:cb:
                    b6:7b:18:f3:54:5c:e9:8a:2c:4e:03:a2:0a:56:aa:
                    60:d2:d0:5d:79:87:f3:99:85:4a:d8:b0:5e:c1:62:
                    c0:6e:10:ec:84:c1:4f:cd:bd:a1:b7:41:01:00:85:
                    a6:fe:38:bb:42:b9:92:8e:c3:80:2a:08:79:a6:2b:
                    d5:ae:d2:76:a1:c6:ec:81:fd:62:dc:ea:fe:13:9a:
                    5e:66:51:d1:90:0d:12:9e:0c:e2:f7:f6:da:61:5d:
                    cc:e6:8e:e4:f6:83:c2:da:6b:89:c0:c9:8b:9d:02:
                    89:1a:2b:f2:f2:c5:4a:5b:7e:6f:46:9c:6d:59:b6:
                    e5:9d:e3:f6:cb:84:75:fd:2c:7f:dc:8e:20:1b:9d:
                    d2:10:f4:64:50:b3:e0:8f:ec:0a:96:db:82:69:d1:
                    24:8f:a0:96:4d:28:68:ed:9d:8a:9f:87:74:45:f8:
                    ca:10:de:00:f1:af:72:21:67:41:ee:0f:42:c5:dc:
                    86:cf:41:ae:e8:31:0d:38:ea:54:d7:a3:6c:b8:10:
                    b5:63:e2:a7:df:f0:ec:65:45:97:ca:76:4d:39:45:
                    da:8a:93:6b:cf:1c:c3:86:6e:4e:e7:5e:a3:1d:7d:
                    22:2e:af:a6:fe:2c:a5:b4:eb:c4:7a:10:89:ff:96:
                    f1:93:5f:fe:44:92:17:38:9c:5f:2f:d7:94:35:46:
                    c9:66:81:b9:3e:dd:cf:50:ec:07:31:fb:3a:27:b0:
                    55:10:53:3d:a6:8e:96:a4:8f:e9:cb:07:4d:a5:60:
                    b4:a3:73:0d:1c:1f:17:b1:57:1a:28:5a:fa:71:bc:
                    d5:e9:1d:c8:30:ad:e3:d5:8d:b3:a5:5c:f2:ad:ac:
                    2b:df:d3:4e:40:54:75:8a:09:d3:90:65:9d:51:e5:
                    a7:ad:a5:a9:3d:fc:b7:c3:0d:53
                Exponent: 65537 (0x10001)
        X509v3 extensions:
            X509v3 Subject Key Identifier: 
                0A:DB:09:3C:3C:01:AB:3C:BF:8F:79:FC:12:D7:13:ED:C1:BF:C4:28
            X509v3 Authority Key Identifier: 
                93:4E:D8:5F:D3:14:F0:82:BE:B3:E5:5D:00:06:01:A7:2E:7F:19:C8
            X509v3 Basic Constraints: 
                CA:FALSE
            X509v3 Key Usage: 
                Digital Signature, Key Encipherment
            X509v3 Subject Alternative Name: 
                DNS:localhost, DNS:kafka-2, IP Address:192.168.56.209
    Signature Algorithm: sha256WithRSAEncryption
    Signature Value:
        18:19:82:29:cb:d3:5f:6f:b8:03:32:7f:77:e2:a6:cf:bb:d3:
        ca:a1:84:b5:4b:7b:fa:46:f9:e2:e5:68:c2:dd:c1:e5:41:fc:
        df:12:36:52:6c:aa:aa:08:31:7b:64:5f:29:05:b1:6c:f3:a9:
        ca:17:b2:2a:51:7f:72:25:74:ed:64:bc:ec:ff:08:2a:de:1c:
        f6:1c:04:44:65:e7:0f:7d:7c:c1:10:f8:29:16:7a:58:b8:47:
        03:ea:62:f2:ec:3c:a1:14:25:69:c8:bd:06:14:ae:d8:7d:1c:
        e3:9c:60:c5:43:f9:ce:99:f3:17:6e:c5:fc:23:34:77:11:49:
        58:c4:35:8e:4d:2e:a2:e0:46:64:ab:68:7b:a2:b9:e5:7b:62:
        54:ef:7d:c0:21:0c:e7:e3:47:d5:94:64:83:db:ec:0f:1c:18:
        d7:e7:1a:9c:06:36:25:00:1d:4a:3e:41:80:8d:12:be:39:d2:
        05:af:cb:fe:58:5d:29:f9:41:05:1f:6e:02:c8:90:d4:fd:83:
        6e:01:8e:fd:63:97:11:27:50:32:43:76:43:6c:00:e4:92:7f:
        87:6c:ba:cb:01:4a:71:f3:12:3e:2f:39:41:0e:e6:51:69:82:
        52:df:71:13:bc:84:be:73:bd:e2:64:2c:7e:af:a7:15:70:46:
        64:4d:94:46:21:c2:9c:dc:5c:f7:ee:25:7b:22:8b:1a:b8:e7:
        30:9d:76:97:c7:ac:63:a8:ce:97:fc:50:9e:88:28:d4:ed:75:
        a1:d3:54:85:1d:8e:7b:b6:42:54:39:f2:6d:bd:a5:66:94:4d:
        8f:e8:96:8d:f1:c1:38:b2:69:45:ea:4c:68:e4:e8:e0:67:1c:
        50:44:71:d4:32:b9:5b:e6:0d:cb:93:1a:84:8a:8f:3a:4c:90:
        0d:a4:a6:6e:5b:b4:6d:0b:2a:bd:f0:4a:74:94:b2:38:46:2f:
        d3:21:81:d5:a3:bd:19:41:f1:b6:f7:6f:d5:29:86:81:77:f2:
        3f:80:b0:65:4f:b2:89:82:e2:22:56:ef:f0:34:06:9e:63:38:
        3a:a4:a1:4c:76:00:ac:4f:3a:46:f3:c3:7a:28:47:b7:6c:9b:
        08:de:95:4f:64:29:3a:65:1f:21:3b:bf:f6:e6:ec:be:ef:c6:
        ea:7e:e7:aa:6e:94:ca:84:9b:27:f9:12:c5:94:d6:43:bd:0e:
        30:2f:34:bd:95:b7:ed:bd:05:f8:91:86:2e:d8:e9:d4:72:a7:
        66:26:cf:6f:6b:3f:a1:ef:53:3b:8a:05:f3:c9:1c:b3:b1:66:
        e8:84:3e:9a:13:ba:3b:d0:ce:dd:65:2e:74:cc:ed:8e:a5:79:
        a2:f6:7b:62:33:9f:f0:4e
-----BEGIN CERTIFICATE-----
MIIFgTCCA2mgAwIBAgIBAjANBgkqhkiG9w0BAQsFADCBmTELMAkGA1UEBhMCRlIx
DDAKBgNVBAgMA2lkZjEMMAoGA1UEBwwDaWRmMRcwFQYDVQQKDA5kZXZzZWNvcHMt
ZG9qbzEXMBUGA1UECwwOZGV2c2Vjb3BzLWRvam8xFjAUBgNVBAMMDWRldnNlY29w
c2Rvam8xJDAiBgkqhkiG9w0BCQEWFW5nYXN3aWxseTc3QGdtYWlsLmNvbTAeFw0y
NTExMTYxMzU0NTZaFw0yODA4MTIxMzU0NTZaMG0xCzAJBgNVBAYTAkZSMQwwCgYD
VQQIEwNpZGYxDDAKBgNVBAcTA2lkZjEXMBUGA1UEChMOZGV2c2Vjb3BzLWRvam8x
FzAVBgNVBAsTDmRldnNlY29wcy1kb2pvMRAwDgYDVQQDEwdrYWZrYS0yMIIBojAN
BgkqhkiG9w0BAQEFAAOCAY8AMIIBigKCAYEAwhEWCorr3eTpT7BnNITYjgDVIVOV
OK1Xxo2VXbdLfVBsp1FaC2RKr5+e1Mu2exjzVFzpiixOA6IKVqpg0tBdeYfzmYVK
2LBewWLAbhDshMFPzb2ht0EBAIWm/ji7QrmSjsOAKgh5pivVrtJ2ocbsgf1i3Or+
E5peZlHRkA0Sngzi9/baYV3M5o7k9oPC2muJwMmLnQKJGivy8sVKW35vRpxtWbbl
neP2y4R1/Sx/3I4gG53SEPRkULPgj+wKltuCadEkj6CWTSho7Z2Kn4d0RfjKEN4A
8a9yIWdB7g9CxdyGz0Gu6DENOOpU16NsuBC1Y+Kn3/DsZUWXynZNOUXaipNrzxzD
hm5O516jHX0iLq+m/iyltOvEehCJ/5bxk1/+RJIXOJxfL9eUNUbJZoG5Pt3PUOwH
Mfs6J7BVEFM9po6WpI/pywdNpWC0o3MNHB8XsVcaKFr6cbzV6R3IMK3j1Y2zpVzy
rawr39NOQFR1ignTkGWdUeWnraWpPfy3ww1TAgMBAAGjfzB9MB0GA1UdDgQWBBQK
2wk8PAGrPL+PefwS1xPtwb/EKDAfBgNVHSMEGDAWgBSTTthf0xTwgr6z5V0ABgGn
Ln8ZyDAJBgNVHRMEAjAAMAsGA1UdDwQEAwIFoDAjBgNVHREEHDAagglsb2NhbGhv
c3SCB2thZmthLTKHBMCoONEwDQYJKoZIhvcNAQELBQADggIBABgZginL019vuAMy
f3fips+708qhhLVLe/pG+eLlaMLdweVB/N8SNlJsqqoIMXtkXykFsWzzqcoXsipR
f3IldO1kvOz/CCreHPYcBERl5w99fMEQ+CkWeli4RwPqYvLsPKEUJWnIvQYUrth9
HOOcYMVD+c6Z8xduxfwjNHcRSVjENY5NLqLgRmSraHuiueV7YlTvfcAhDOfjR9WU
ZIPb7A8cGNfnGpwGNiUAHUo+QYCNEr450gWvy/5YXSn5QQUfbgLIkNT9g24Bjv1j
lxEnUDJDdkNsAOSSf4dsussBSnHzEj4vOUEO5lFpglLfcRO8hL5zveJkLH6vpxVw
RmRNlEYhwpzcXPfuJXsiixq45zCddpfHrGOozpf8UJ6IKNTtdaHTVIUdjnu2QlQ5
8m29pWaUTY/olo3xwTiyaUXqTGjk6OBnHFBEcdQyuVvmDcuTGoSKjzpMkA2kpm5b
tG0LKr3wSnSUsjhGL9MhgdWjvRlB8bb3b9UphoF38j+AsGVPsomC4iJW7/A0Bp5j
ODqkoUx2AKxPOkbzw3ooR7dsmwjelU9kKTplHyE7v/bm7L7vxup+56pulMqEmyf5
EsWU1kO9DjAvNL2Vt+29BfiRhi7Y6dRyp2Ymz29rP6HvUzuKBfPJHLOxZuiEPpoT
ujvQzt1lLnTM7Y6leaL2e2Izn/BO
-----END CERTIFICATE-----
