Certificate:
    Data:
        Version: 3 (0x2)
        Serial Number: 3 (0x3)
        Signature Algorithm: sha256WithRSAEncryption
        Issuer: C=FR, ST=idf, L=idf, O=devsecops-dojo, OU=devsecops-dojo, CN=devsecopsdojo/emailAddress=ngaswilly77@gmail.com
        Validity
            Not Before: Nov 16 13:55:17 2025 GMT
            Not After : Aug 12 13:55:17 2028 GMT
        Subject: C=FR, ST=idf, L=idf, O=devsecops-dojo, OU=devsecops-dojo, CN=kafka-3
        Subject Public Key Info:
            Public Key Algorithm: rsaEncryption
                Public-Key: (3072 bit)
                Modulus:
                    00:c4:80:51:65:26:b1:6b:2b:27:f5:68:75:0c:6e:
                    4b:9d:3b:4b:ba:3a:c0:47:b5:1f:8e:4d:bc:39:19:
                    c4:f8:95:c5:42:6d:3e:c6:3a:96:dd:f0:e2:33:77:
                    3e:db:c6:67:d7:80:0d:2e:39:40:86:3e:f0:61:b0:
                    8d:ee:53:4e:e9:7d:69:a1:90:5a:41:bb:ec:ed:77:
                    46:45:d4:4b:e4:65:4b:a7:87:74:91:74:ff:4a:c6:
                    f4:72:b2:fe:29:c3:53:9c:b6:f7:f1:57:ee:cc:06:
                    79:c7:d3:bd:cc:76:09:af:31:cf:ef:e7:50:5e:b3:
                    1a:b4:2c:d1:ee:ea:9c:86:e8:a6:83:11:3b:1d:f9:
                    9c:5c:2b:a5:7c:7c:27:76:c1:a6:a8:e5:22:2e:ea:
                    94:75:12:f4:13:4a:40:87:3e:83:31:48:af:ef:cf:
                    a6:d5:c9:84:5e:b8:35:8f:8e:37:61:ab:f3:a4:03:
                    45:b6:30:c1:46:d2:c9:4f:29:07:42:98:8d:86:a2:
                    c2:85:2a:dc:6d:da:df:28:73:59:0d:05:b6:b9:1f:
                    dd:aa:ff:66:cb:f5:13:8a:73:6b:89:5a:76:8c:79:
                    1b:73:32:60:8f:23:c5:d7:72:bd:11:38:18:6e:af:
                    22:14:c7:dd:0f:11:63:42:d3:4c:51:d8:43:6b:9f:
                    d8:9b:5e:c2:9b:18:84:3f:c7:14:30:eb:cc:b3:bf:
                    f1:43:86:8e:23:16:99:02:6e:7d:8b:5f:5d:00:68:
                    8c:da:75:73:7f:6f:f7:db:37:02:f2:a3:c8:3e:ee:
                    42:48:c9:97:76:7e:de:44:b8:38:ba:39:ea:94:dc:
                    0d:be:d7:9e:6d:26:02:df:db:b2:88:5a:51:78:82:
                    f0:16:49:ea:0d:98:0e:cc:b7:b8:18:f9:2a:0c:5f:
                    31:54:0e:3f:a9:c8:88:5a:f4:13:55:ed:b5:ff:41:
                    01:42:55:a8:5e:54:14:93:14:fe:6b:52:0e:97:32:
                    6c:d2:66:33:f8:d8:99:32:cb:8b
                Exponent: 65537 (0x10001)
        X509v3 extensions:
            X509v3 Subject Key Identifier: 
                09:2A:D1:79:AE:57:88:95:98:99:06:AB:E6:CA:52:36:44:CB:3F:CE
            X509v3 Authority Key Identifier: 
                93:4E:D8:5F:D3:14:F0:82:BE:B3:E5:5D:00:06:01:A7:2E:7F:19:C8
            X509v3 Basic Constraints: 
                CA:FALSE
            X509v3 Key Usage: 
                Digital Signature, Key Encipherment
            X509v3 Subject Alternative Name: 
                DNS:localhost, DNS:kafka-3, IP Address:192.168.56.209
    Signature Algorithm: sha256WithRSAEncryption
    Signature Value:
        0e:4b:1d:39:ef:8a:e2:1b:0f:af:dd:af:e4:fb:73:01:4b:d8:
        ba:6c:34:88:7c:59:1b:5a:a4:04:5c:22:ce:8a:6d:61:ee:1f:
        c4:c1:84:32:c4:93:ca:1a:fb:f3:d1:5f:dd:e7:5c:11:1b:d7:
        dc:34:06:a3:6b:11:1f:35:8a:01:0c:6d:9a:4a:17:87:75:d5:
        c6:23:27:be:c5:33:58:02:f6:18:b0:d2:02:f3:c2:5a:45:df:
        9e:d3:71:3d:e8:ae:88:68:33:96:ab:f1:3b:30:d2:c1:30:6a:
        11:04:02:71:b1:48:c1:7e:d3:1d:f2:69:5c:7a:fe:3f:ae:32:
        82:fd:2b:ce:4d:aa:39:0c:3a:48:23:80:0c:c9:c2:0f:ba:0f:
        3b:32:cd:49:c6:f5:91:69:00:ed:63:ba:13:45:37:26:2f:13:
        a3:de:5d:42:ce:30:8a:80:bf:5b:8b:03:5b:16:f1:13:9d:60:
        ff:07:78:a2:5d:78:0a:7e:7c:a8:84:b8:c8:5a:ec:12:8d:6f:
        44:e8:71:64:f5:79:8d:f1:cc:91:f5:21:a5:75:09:9c:41:2d:
        f8:ab:49:1a:86:53:cc:4a:db:ed:fc:87:49:1d:93:40:0b:42:
        9f:a1:6a:62:8b:10:8a:4b:38:12:3c:f3:ba:4e:50:2d:ba:bf:
        25:66:7f:d2:74:d2:8a:19:51:60:3a:40:80:c3:01:52:72:21:
        0f:09:e2:eb:6c:33:9b:24:14:2a:f3:49:56:fe:65:aa:20:02:
        ec:cf:18:4f:c6:64:59:b4:39:d2:fd:f0:a0:05:3c:f2:01:c9:
        68:f3:95:28:83:ed:31:19:22:4a:6b:cc:57:83:67:f3:d6:0d:
        b3:c7:01:ef:72:e9:5d:dc:49:c8:64:28:0d:0b:30:98:17:97:
        9b:29:ad:c7:ed:c2:b1:89:cc:3a:21:de:f5:a7:75:03:99:06:
        d0:c3:c4:a2:5c:71:5d:13:b7:b7:44:12:d3:a8:8f:0a:00:af:
        8c:8f:bb:c1:c2:cf:d5:9e:81:3e:2e:f6:fa:76:a7:94:5e:12:
        03:ca:78:50:da:99:0c:20:ae:5e:af:7e:88:f3:31:6f:c5:e0:
        b4:f3:de:34:af:4c:57:75:94:af:4d:79:96:98:19:78:0a:4f:
        c0:e9:b0:e4:44:e3:a5:4c:3f:6d:d8:50:49:74:b7:7b:b5:ba:
        34:ba:9b:4f:15:7a:6d:83:ca:95:55:e2:13:95:68:73:f0:d6:
        65:39:17:f2:6c:2d:06:30:01:ba:b2:f4:4d:20:38:99:43:fa:
        1e:f3:93:04:fc:b6:a3:9d:26:e6:74:95:f1:12:4f:ba:a2:16:
        99:12:2e:6d:c6:db:ae:ca
-----BEGIN CERTIFICATE-----
MIIFgTCCA2mgAwIBAgIBAzANBgkqhkiG9w0BAQsFADCBmTELMAkGA1UEBhMCRlIx
DDAKBgNVBAgMA2lkZjEMMAoGA1UEBwwDaWRmMRcwFQYDVQQKDA5kZXZzZWNvcHMt
ZG9qbzEXMBUGA1UECwwOZGV2c2Vjb3BzLWRvam8xFjAUBgNVBAMMDWRldnNlY29w
c2Rvam8xJDAiBgkqhkiG9w0BCQEWFW5nYXN3aWxseTc3QGdtYWlsLmNvbTAeFw0y
NTExMTYxMzU1MTdaFw0yODA4MTIxMzU1MTdaMG0xCzAJBgNVBAYTAkZSMQwwCgYD
VQQIEwNpZGYxDDAKBgNVBAcTA2lkZjEXMBUGA1UEChMOZGV2c2Vjb3BzLWRvam8x
FzAVBgNVBAsTDmRldnNlY29wcy1kb2pvMRAwDgYDVQQDEwdrYWZrYS0zMIIBojAN
BgkqhkiG9w0BAQEFAAOCAY8AMIIBigKCAYEAxIBRZSaxaysn9Wh1DG5LnTtLujrA
R7Ufjk28ORnE+JXFQm0+xjqW3fDiM3c+28Zn14ANLjlAhj7wYbCN7lNO6X1poZBa
Qbvs7XdGRdRL5GVLp4d0kXT/Ssb0crL+KcNTnLb38VfuzAZ5x9O9zHYJrzHP7+dQ
XrMatCzR7uqchuimgxE7HfmcXCulfHwndsGmqOUiLuqUdRL0E0pAhz6DMUiv78+m
1cmEXrg1j443YavzpANFtjDBRtLJTykHQpiNhqLChSrcbdrfKHNZDQW2uR/dqv9m
y/UTinNriVp2jHkbczJgjyPF13K9ETgYbq8iFMfdDxFjQtNMUdhDa5/Ym17CmxiE
P8cUMOvMs7/xQ4aOIxaZAm59i19dAGiM2nVzf2/32zcC8qPIPu5CSMmXdn7eRLg4
ujnqlNwNvteebSYC39uyiFpReILwFknqDZgOzLe4GPkqDF8xVA4/qciIWvQTVe21
/0EBQlWoXlQUkxT+a1IOlzJs0mYz+NiZMsuLAgMBAAGjfzB9MB0GA1UdDgQWBBQJ
KtF5rleIlZiZBqvmylI2RMs/zjAfBgNVHSMEGDAWgBSTTthf0xTwgr6z5V0ABgGn
Ln8ZyDAJBgNVHRMEAjAAMAsGA1UdDwQEAwIFoDAjBgNVHREEHDAagglsb2NhbGhv
c3SCB2thZmthLTOHBMCoONEwDQYJKoZIhvcNAQELBQADggIBAA5LHTnviuIbD6/d
r+T7cwFL2LpsNIh8WRtapARcIs6KbWHuH8TBhDLEk8oa+/PRX93nXBEb19w0BqNr
ER81igEMbZpKF4d11cYjJ77FM1gC9hiw0gLzwlpF357TcT3orohoM5ar8Tsw0sEw
ahEEAnGxSMF+0x3yaVx6/j+uMoL9K85NqjkMOkgjgAzJwg+6DzsyzUnG9ZFpAO1j
uhNFNyYvE6PeXULOMIqAv1uLA1sW8ROdYP8HeKJdeAp+fKiEuMha7BKNb0TocWT1
eY3xzJH1IaV1CZxBLfirSRqGU8xK2+38h0kdk0ALQp+hamKLEIpLOBI887pOUC26
vyVmf9J00ooZUWA6QIDDAVJyIQ8J4utsM5skFCrzSVb+ZaogAuzPGE/GZFm0OdL9
8KAFPPIByWjzlSiD7TEZIkprzFeDZ/PWDbPHAe9y6V3cSchkKA0LMJgXl5sprcft
wrGJzDoh3vWndQOZBtDDxKJccV0Tt7dEEtOojwoAr4yPu8HCz9WegT4u9vp2p5Re
EgPKeFDamQwgrl6vfojzMW/F4LTz3jSvTFd1lK9NeZaYGXgKT8DpsORE46VMP23Y
UEl0t3u1ujS6m08Vem2DypVV4hOVaHPw1mU5F/JsLQYwAbqy9E0gOJlD+h7zkwT8
tqOdJuZ0lfEST7qiFpkSLm3G267K
-----END CERTIFICATE-----
